target datalayout = "e-m:e-p270:32:32-p271:32:32-p272:64:64-i64:64-i128:128-f80:128-n8:16:32:64-S128"
target triple = "x86_64-pc-linux-gnu"

%"class.WasmEdge::ValType" = type { %union.anon }
%union.anon = type { %struct.anon }
%struct.anon = type { i8, i8, i8, i8, i32 }
%"class.WasmEdge::AST::ImportDesc" = type { %"class.WasmEdge::AST::Desc", %"class.std::__cxx11::basic_string", i32, %"class.WasmEdge::AST::TableType", %"class.WasmEdge::AST::MemoryType", %"class.WasmEdge::AST::GlobalType", %"class.WasmEdge::AST::TagType" }
%"class.WasmEdge::AST::Desc" = type { i8, %"class.std::__cxx11::basic_string" }
%"class.std::__cxx11::basic_string" = type { %"struct.std::__cxx11::basic_string<char>::_Alloc_hider", i64, %union.anon.128 }
%"struct.std::__cxx11::basic_string<char>::_Alloc_hider" = type { ptr }
%union.anon.128 = type { i64, [8 x i8] }
%"class.WasmEdge::AST::TableType" = type { %"class.WasmEdge::ValType", %"class.WasmEdge::AST::Limit" }
%"class.WasmEdge::AST::Limit" = type { i8, i32, i32 }
%"class.WasmEdge::AST::MemoryType" = type { %"class.WasmEdge::AST::Limit" }
%"class.WasmEdge::AST::GlobalType" = type <{ %"class.WasmEdge::ValType", i8, [3 x i8] }>
%"class.WasmEdge::AST::TagType" = type { i32, ptr }

; Function Attrs: mustprogress nounwind uwtable
define internal noundef ptr @_ZN12_GLOBAL__N_112toTagTypeCxtEPKN8WasmEdge3AST7TagTypeE(ptr noundef %0) #0 {
  %2 = alloca ptr, align 8
  store ptr %0, ptr %2, align 8
  %3 = load ptr, ptr %2, align 8
  ret ptr %3
}

; Function Attrs: mustprogress nounwind uwtable
define linkonce_odr hidden noundef nonnull align 8 dereferenceable(16) ptr @_ZNK8WasmEdge3AST10ImportDesc18getExternalTagTypeEv(ptr noundef nonnull align 8 dereferenceable(136) %0) #0 comdat align 2 {
  %2 = alloca ptr, align 8
  store ptr %0, ptr %2, align 8
  %3 = load ptr, ptr %2, align 8
  %4 = getelementptr inbounds %"class.WasmEdge::AST::ImportDesc", ptr %3, i32 0, i32 6
  ret ptr %4
}

; Function Attrs: mustprogress nounwind uwtable
define linkonce_odr hidden noundef zeroext i8 @_ZNK8WasmEdge3AST4Desc15getExternalTypeEv(ptr noundef nonnull align 8 dereferenceable(40) %0) #0 comdat align 2 {
  %2 = alloca ptr, align 8
  store ptr %0, ptr %2, align 8
  %3 = load ptr, ptr %2, align 8
  %4 = getelementptr inbounds %"class.WasmEdge::AST::Desc", ptr %3, i32 0, i32 0
  %5 = load i8, ptr %4, align 8
  ret i8 %5
}

; Function Attrs: mustprogress nounwind uwtable
define internal noundef ptr @_ZN12_GLOBAL__N_114fromImpTypeCxtEPK26WasmEdge_ImportTypeContext(ptr noundef %0) #0 {
  %2 = alloca ptr, align 8
  store ptr %0, ptr %2, align 8
  %3 = load ptr, ptr %2, align 8
  ret ptr %3
}

; Function Attrs: mustprogress nounwind uwtable
define ptr @WasmEdge_ImportTypeGetTagType(ptr noundef %0, ptr noundef %1) #0 {
  %3 = alloca ptr, align 8
  %4 = alloca ptr, align 8
  %5 = alloca ptr, align 8
  store ptr %0, ptr %4, align 8
  store ptr %1, ptr %5, align 8
  %6 = load ptr, ptr %4, align 8
  %7 = icmp ne ptr %6, null
  br i1 %7, label %8, label %21

8:                                                ; preds = %2
  %9 = load ptr, ptr %5, align 8
  %10 = icmp ne ptr %9, null
  br i1 %10, label %11, label %21

11:                                               ; preds = %8
  %12 = load ptr, ptr %5, align 8
  %13 = call noundef ptr @_ZN12_GLOBAL__N_114fromImpTypeCxtEPK26WasmEdge_ImportTypeContext(ptr noundef %12) #18
  %14 = call noundef zeroext i8 @_ZNK8WasmEdge3AST4Desc15getExternalTypeEv(ptr noundef nonnull align 8 dereferenceable(40) %13) #18
  %15 = icmp eq i8 %14, 4
  br i1 %15, label %16, label %21

16:                                               ; preds = %11
  %17 = load ptr, ptr %5, align 8
  %18 = call noundef ptr @_ZN12_GLOBAL__N_114fromImpTypeCxtEPK26WasmEdge_ImportTypeContext(ptr noundef %17) #18
  %19 = call noundef nonnull align 8 dereferenceable(16) ptr @_ZNK8WasmEdge3AST10ImportDesc18getExternalTagTypeEv(ptr noundef nonnull align 8 dereferenceable(136) %18) #18
  %20 = call noundef ptr @_ZN12_GLOBAL__N_112toTagTypeCxtEPKN8WasmEdge3AST7TagTypeE(ptr noundef %19) #18
  store ptr %20, ptr %3, align 8
  br label %22

21:                                               ; preds = %11, %8, %2
  store ptr null, ptr %3, align 8
  br label %22

22:                                               ; preds = %21, %16
  %23 = load ptr, ptr %3, align 8
  ret ptr %23
}